target datalayout = "e-m:e-p270:32:32-p271:32:32-p272:64:64-i64:64-i128:128-f80:128-n8:16:32:64-S128"
target triple = "x86_64-pc-linux-gnu"

%struct._object = type { %union.anon, ptr }
%union.anon = type { i64 }
%struct._typeobject = type { %struct.PyVarObject, ptr, i64, i64, ptr, i64, ptr, ptr, ptr, ptr, ptr, ptr, ptr, ptr, ptr, ptr, ptr, ptr, ptr, i64, ptr, ptr, ptr, ptr, i64, ptr, ptr, ptr, ptr, ptr, ptr, ptr, ptr, ptr, i64, ptr, ptr, ptr, ptr, ptr, ptr, ptr, ptr, ptr, ptr, ptr, i32, ptr, ptr, i8, i16 }
%struct.PyVarObject = type { %struct._object, i64 }
%struct.anon = type { i32, i32 }

@.str.32 = private unnamed_addr constant [40 x i8] c"../cpython/Modules/_testcapi/watchers.c\00", align 1
@g_dict_watch_events = internal global ptr null, align 8
@.str.36 = private unnamed_addr constant [6 x i8] c"clear\00", align 1
@.str.37 = private unnamed_addr constant [8 x i8] c"dealloc\00", align 1
@.str.38 = private unnamed_addr constant [6 x i8] c"clone\00", align 1
@.str.39 = private unnamed_addr constant [10 x i8] c"new:%S:%S\00", align 1
@.str.40 = private unnamed_addr constant [10 x i8] c"mod:%S:%S\00", align 1
@.str.41 = private unnamed_addr constant [7 x i8] c"del:%S\00", align 1
@.str.42 = private unnamed_addr constant [8 x i8] c"unknown\00", align 1
@.str.43 = private unnamed_addr constant [34 x i8] c"PyList_Check(g_dict_watch_events)\00", align 1
@__PRETTY_FUNCTION__.dict_watch_callback = private unnamed_addr constant [79 x i8] c"int dict_watch_callback(PyDict_WatchEvent, PyObject *, PyObject *, PyObject *)\00", align 1

; Function Attrs: alwaysinline nounwind uwtable
define internal i32 @_Py_IsImmortal(ptr noundef %0) #5 {
  %2 = alloca ptr, align 8
  store ptr %0, ptr %2, align 8, !tbaa !3
  %3 = load ptr, ptr %2, align 8, !tbaa !3
  %4 = getelementptr inbounds nuw %struct._object, ptr %3, i32 0, i32 0
  %5 = getelementptr inbounds nuw %struct.anon, ptr %4, i32 0, i32 0
  %6 = load i32, ptr %5, align 8, !tbaa !52
  %7 = icmp slt i32 %6, 0
  %8 = zext i1 %7 to i32
  ret i32 %8
}

; Function Attrs: alwaysinline nounwind uwtable
define internal void @Py_DECREF(ptr noundef %0) #5 {
  %2 = alloca ptr, align 8
  store ptr %0, ptr %2, align 8, !tbaa !3
  %3 = load ptr, ptr %2, align 8, !tbaa !3
  %4 = call i32 @_Py_IsImmortal(ptr noundef %3)
  %5 = icmp ne i32 %4, 0
  br i1 %5, label %6, label %7

6:                                                ; preds = %1
  br label %16

7:                                                ; preds = %1
  %8 = load ptr, ptr %2, align 8, !tbaa !3
  %9 = getelementptr inbounds nuw %struct._object, ptr %8, i32 0, i32 0
  %10 = getelementptr inbounds nuw %struct.anon, ptr %9, i32 0, i32 0
  %11 = load i32, ptr %10, align 8, !tbaa !52
  %12 = add i32 %11, -1
  store i32 %12, ptr %10, align 8, !tbaa !52
  %13 = icmp eq i32 %12, 0
  br i1 %13, label %14, label %16

14:                                               ; preds = %7
  %15 = load ptr, ptr %2, align 8, !tbaa !3
  call void @_Py_Dealloc(ptr noundef %15)
  br label %16

16:                                               ; preds = %6, %14, %7
  ret void
}

; Function Attrs: inlinehint nounwind uwtable
define internal i32 @PyType_HasFeature(ptr noundef %0, i64 noundef %1) #3 {
  %3 = alloca ptr, align 8
  %4 = alloca i64, align 8
  %5 = alloca i64, align 8
  store ptr %0, ptr %3, align 8, !tbaa !43
  store i64 %1, ptr %4, align 8, !tbaa !12
  call void @llvm.lifetime.start.p0(i64 8, ptr %5) #6
  %6 = load ptr, ptr %3, align 8, !tbaa !43
  %7 = getelementptr inbounds nuw %struct._typeobject, ptr %6, i32 0, i32 19
  %8 = load i64, ptr %7, align 8, !tbaa !44
  store i64 %8, ptr %5, align 8, !tbaa !12
  %9 = load i64, ptr %5, align 8, !tbaa !12
  %10 = load i64, ptr %4, align 8, !tbaa !12
  %11 = and i64 %9, %10
  %12 = icmp ne i64 %11, 0
  %13 = zext i1 %12 to i32
  call void @llvm.lifetime.end.p0(i64 8, ptr %5) #6
  ret i32 %13
}

; Function Attrs: inlinehint nounwind uwtable
define internal ptr @_Py_TYPE(ptr noundef %0) #3 {
  %2 = alloca ptr, align 8
  store ptr %0, ptr %2, align 8, !tbaa !3
  %3 = load ptr, ptr %2, align 8, !tbaa !3
  %4 = getelementptr inbounds nuw %struct._object, ptr %3, i32 0, i32 1
  %5 = load ptr, ptr %4, align 8, !tbaa !51
  ret ptr %5
}

; Function Attrs: nounwind uwtable
define internal i32 @dict_watch_callback(i32 noundef %0, ptr noundef %1, ptr noundef %2, ptr noundef %3) #0 {
  %5 = alloca i32, align 4
  %6 = alloca i32, align 4
  %7 = alloca ptr, align 8
  %8 = alloca ptr, align 8
  %9 = alloca ptr, align 8
  %10 = alloca ptr, align 8
  %11 = alloca i32, align 4
  store i32 %0, ptr %6, align 4, !tbaa !10
  store ptr %1, ptr %7, align 8, !tbaa !3
  store ptr %2, ptr %8, align 8, !tbaa !3
  store ptr %3, ptr %9, align 8, !tbaa !3
  call void @llvm.lifetime.start.p0(i64 8, ptr %10) #6
  %12 = load i32, ptr %6, align 4, !tbaa !10
  switch i32 %12, label %30 [
    i32 4, label %13
    i32 5, label %15
    i32 3, label %17
    i32 0, label %19
    i32 1, label %23
    i32 2, label %27
  ]

13:                                               ; preds = %4
  %14 = call ptr @PyUnicode_FromString(ptr noundef @.str.36)
  store ptr %14, ptr %10, align 8, !tbaa !3
  br label %32

15:                                               ; preds = %4
  %16 = call ptr @PyUnicode_FromString(ptr noundef @.str.37)
  store ptr %16, ptr %10, align 8, !tbaa !3
  br label %32

17:                                               ; preds = %4
  %18 = call ptr @PyUnicode_FromString(ptr noundef @.str.38)
  store ptr %18, ptr %10, align 8, !tbaa !3
  br label %32

19:                                               ; preds = %4
  %20 = load ptr, ptr %8, align 8, !tbaa !3
  %21 = load ptr, ptr %9, align 8, !tbaa !3
  %22 = call ptr (ptr, ...) @PyUnicode_FromFormat(ptr noundef @.str.39, ptr noundef %20, ptr noundef %21)
  store ptr %22, ptr %10, align 8, !tbaa !3
  br label %32

23:                                               ; preds = %4
  %24 = load ptr, ptr %8, align 8, !tbaa !3
  %25 = load ptr, ptr %9, align 8, !tbaa !3
  %26 = call ptr (ptr, ...) @PyUnicode_FromFormat(ptr noundef @.str.40, ptr noundef %24, ptr noundef %25)
  store ptr %26, ptr %10, align 8, !tbaa !3
  br label %32

27:                                               ; preds = %4
  %28 = load ptr, ptr %8, align 8, !tbaa !3
  %29 = call ptr (ptr, ...) @PyUnicode_FromFormat(ptr noundef @.str.41, ptr noundef %28)
  store ptr %29, ptr %10, align 8, !tbaa !3
  br label %32

30:                                               ; preds = %4
  %31 = call ptr @PyUnicode_FromString(ptr noundef @.str.42)
  store ptr %31, ptr %10, align 8, !tbaa !3
  br label %32

32:                                               ; preds = %30, %27, %23, %19, %17, %15, %13
  %33 = load ptr, ptr %10, align 8, !tbaa !3
  %34 = icmp eq ptr %33, null
  br i1 %34, label %35, label %36

35:                                               ; preds = %32
  store i32 -1, ptr %5, align 4
  store i32 1, ptr %11, align 4
  br label %53

36:                                               ; preds = %32
  %37 = load ptr, ptr @g_dict_watch_events, align 8, !tbaa !3
  %38 = call ptr @_Py_TYPE(ptr noundef %37)
  %39 = call i32 @PyType_HasFeature(ptr noundef %38, i64 noundef 33554432)
  %40 = icmp ne i32 %39, 0
  br i1 %40, label %41, label %42

41:                                               ; preds = %36
  br label %44

42:                                               ; preds = %36
  call void @__assert_fail(ptr noundef @.str.43, ptr noundef @.str.32, i32 noundef 54, ptr noundef @__PRETTY_FUNCTION__.dict_watch_callback) #7
  unreachable

43:                                               ; No predecessors!
  br label %44

44:                                               ; preds = %43, %41
  %45 = load ptr, ptr @g_dict_watch_events, align 8, !tbaa !3
  %46 = load ptr, ptr %10, align 8, !tbaa !3
  %47 = call i32 @PyList_Append(ptr noundef %45, ptr noundef %46)
  %48 = icmp slt i32 %47, 0
  br i1 %48, label %49, label %51

49:                                               ; preds = %44
  %50 = load ptr, ptr %10, align 8, !tbaa !3
  call void @Py_DECREF(ptr noundef %50)
  store i32 -1, ptr %5, align 4
  store i32 1, ptr %11, align 4
  br label %53

51:                                               ; preds = %44
  %52 = load ptr, ptr %10, align 8, !tbaa !3
  call void @Py_DECREF(ptr noundef %52)
  store i32 0, ptr %5, align 4
  store i32 1, ptr %11, align 4
  br label %53

53:                                               ; preds = %51, %49, %35
  call void @llvm.lifetime.end.p0(i64 8, ptr %10) #6
  %54 = load i32, ptr %5, align 4
  ret i32 %54
}