; Function Attrs: nounwind uwtable
define internal range(i32 -1, 1) i32 @dict_watch_callback(i32 noundef %0, ptr readnone captures(none) %1, ptr noundef %2, ptr noundef %3) #0 {
  switch i32 %0, label %17 [
    i32 4, label %5
    i32 5, label %7
    i32 3, label %9
    i32 0, label %11
    i32 1, label %13
    i32 2, label %15
  ]

5:                                                ; preds = %4
  %6 = tail call ptr @PyUnicode_FromString(ptr noundef nonnull @.str.36) #6
  br label %19

7:                                                ; preds = %4
  %8 = tail call ptr @PyUnicode_FromString(ptr noundef nonnull @.str.37) #6
  br label %19

9:                                                ; preds = %4
  %10 = tail call ptr @PyUnicode_FromString(ptr noundef nonnull @.str.38) #6
  br label %19

11:                                               ; preds = %4
  %12 = tail call ptr (ptr, ...) @PyUnicode_FromFormat(ptr noundef nonnull @.str.39, ptr noundef %2, ptr noundef %3) #6
  br label %19

13:                                               ; preds = %4
  %14 = tail call ptr (ptr, ...) @PyUnicode_FromFormat(ptr noundef nonnull @.str.40, ptr noundef %2, ptr noundef %3) #6
  br label %19

15:                                               ; preds = %4
  %16 = tail call ptr (ptr, ...) @PyUnicode_FromFormat(ptr noundef nonnull @.str.41, ptr noundef %2) #6
  br label %19

17:                                               ; preds = %4
  %18 = tail call ptr @PyUnicode_FromString(ptr noundef nonnull @.str.42) #6
  br label %19

19:                                               ; preds = %17, %15, %13, %11, %9, %7, %5
  %.0 = phi ptr [ %18, %17 ], [ %16, %15 ], [ %14, %13 ], [ %12, %11 ], [ %10, %9 ], [ %8, %7 ], [ %6, %5 ]
  %20 = icmp eq ptr %.0, null
  br i1 %20, label %34, label %21

21:                                               ; preds = %19
  %22 = load ptr, ptr @g_dict_watch_events, align 8, !tbaa !21
  %23 = getelementptr i8, ptr %22, i64 8
  %.val = load ptr, ptr %23, align 8, !tbaa !3
  %24 = getelementptr i8, ptr %.val, i64 168
  %.val11 = load i64, ptr %24, align 8, !tbaa !9
  %25 = and i64 %.val11, 33554432
  %.not = icmp eq i64 %25, 0
  br i1 %.not, label %26, label %27

26:                                               ; preds = %21
  tail call void @__assert_fail(ptr noundef nonnull @.str.43, ptr noundef nonnull @.str.32, i32 noundef 54, ptr noundef nonnull @__PRETTY_FUNCTION__.dict_watch_callback) #7
  unreachable

27:                                               ; preds = %21
  %28 = tail call i32 @PyList_Append(ptr noundef nonnull %22, ptr noundef nonnull %.0) #6
  %29 = load i32, ptr %.0, align 8, !tbaa !22
  %.not.i = icmp sgt i32 %29, -1
  br i1 %.not.i, label %30, label %Py_DECREF.exit

30:                                               ; preds = %27
  %31 = add nsw i32 %29, -1
  store i32 %31, ptr %.0, align 8, !tbaa !22
  %32 = icmp eq i32 %31, 0
  br i1 %32, label %33, label %Py_DECREF.exit

33:                                               ; preds = %30
  tail call void @_Py_Dealloc(ptr noundef nonnull %.0) #6
  br label %Py_DECREF.exit

Py_DECREF.exit:                                   ; preds = %27, %30, %33
  %.lobit = ashr i32 %28, 31
  br label %34

34:                                               ; preds = %Py_DECREF.exit, %19
  %.010 = phi i32 [ -1, %19 ], [ %.lobit, %Py_DECREF.exit ]
  ret i32 %.010
}